target datalayout = "e-m:e-p270:32:32-p271:32:32-p272:64:64-i64:64-i128:128-f80:128-n8:16:32:64-S128"
target triple = "x86_64-pc-linux-gnu"

%struct.slurm_step_id_msg = type { i64, i32, i32, i32 }
%struct.slurm_step_ctx_struct = type { i16, i32, ptr, ptr, ptr, i16 }
%struct.step_launch_state = type { %union.pthread_mutex_t, %union.pthread_cond_t, i32, ptr, ptr, ptr, i64, i8, ptr, i32, i8, i8, i8, i32, ptr, i64, i32, i16, ptr, ptr, ptr, [1 x %struct.mpi_step_info_t], ptr, i32, %struct.slurm_step_launch_callbacks_t }
%union.pthread_mutex_t = type { %struct.__pthread_mutex_s }
%struct.__pthread_mutex_s = type { i32, i32, i32, i32, i32, i16, i16, %struct.__pthread_internal_list }
%struct.__pthread_internal_list = type { ptr, ptr }
%union.pthread_cond_t = type { %struct.__pthread_cond_s }
%struct.__pthread_cond_s = type { %union.__atomic_wide_counter, %union.__atomic_wide_counter, [2 x i32], [2 x i32], i32, i32, [2 x i32] }
%union.__atomic_wide_counter = type { i64 }
%struct.mpi_step_info_t = type { i32, i32, %struct.slurm_step_id_msg, ptr }
%struct.slurm_step_launch_callbacks_t = type { ptr, ptr, ptr, ptr, ptr }
%struct.job_step_create_response_msg = type { i32, i32, i32, ptr, ptr, ptr, ptr, ptr, ptr, i16 }
%struct.slurm_step_layout = type { ptr, i32, ptr, ptr, ptr, i32, ptr, i16, i16, ptr, i32, i32, ptr }

@.str.2 = private unnamed_addr constant [14 x i8] c"step_launch.c\00", align 1
@__func__.step_launch_state_alter = private unnamed_addr constant [24 x i8] c"step_launch_state_alter\00", align 1

; Function Attrs: nounwind uwtable
define dso_local void @step_launch_state_alter(ptr noundef %0) #0 {
  %2 = alloca ptr, align 8
  %3 = alloca ptr, align 8
  %4 = alloca ptr, align 8
  %5 = alloca i32, align 4
  store ptr %0, ptr %2, align 8
  call void @llvm.lifetime.start.p0(i64 8, ptr %3) #10
  %6 = load ptr, ptr %2, align 8
  %7 = getelementptr inbounds nuw %struct.slurm_step_ctx_struct, ptr %6, i32 0, i32 4
  %8 = load ptr, ptr %7, align 8
  store ptr %8, ptr %3, align 8
  call void @llvm.lifetime.start.p0(i64 8, ptr %4) #10
  %9 = load ptr, ptr %2, align 8
  %10 = getelementptr inbounds nuw %struct.slurm_step_ctx_struct, ptr %9, i32 0, i32 3
  %11 = load ptr, ptr %10, align 8
  %12 = getelementptr inbounds nuw %struct.job_step_create_response_msg, ptr %11, i32 0, i32 4
  %13 = load ptr, ptr %12, align 8
  store ptr %13, ptr %4, align 8
  call void @llvm.lifetime.start.p0(i64 4, ptr %5) #10
  %14 = load ptr, ptr %4, align 8
  %15 = getelementptr inbounds nuw %struct.slurm_step_layout, ptr %14, i32 0, i32 10
  %16 = load i32, ptr %15, align 8
  %17 = load ptr, ptr %3, align 8
  %18 = getelementptr inbounds nuw %struct.step_launch_state, ptr %17, i32 0, i32 2
  store i32 %16, ptr %18, align 8
  %19 = load ptr, ptr %3, align 8
  %20 = getelementptr inbounds nuw %struct.step_launch_state, ptr %19, i32 0, i32 3
  %21 = load ptr, ptr %4, align 8
  %22 = getelementptr inbounds nuw %struct.slurm_step_layout, ptr %21, i32 0, i32 10
  %23 = load i32, ptr %22, align 8
  %24 = zext i32 %23 to i64
  %25 = call ptr @slurm_bit_realloc(ptr noundef %20, i64 noundef %24)
  %26 = load ptr, ptr %3, align 8
  %27 = getelementptr inbounds nuw %struct.step_launch_state, ptr %26, i32 0, i32 4
  %28 = load ptr, ptr %4, align 8
  %29 = getelementptr inbounds nuw %struct.slurm_step_layout, ptr %28, i32 0, i32 10
  %30 = load i32, ptr %29, align 8
  %31 = zext i32 %30 to i64
  %32 = call ptr @slurm_bit_realloc(ptr noundef %27, i64 noundef %31)
  %33 = load ptr, ptr %3, align 8
  %34 = getelementptr inbounds nuw %struct.step_launch_state, ptr %33, i32 0, i32 5
  %35 = load ptr, ptr %4, align 8
  %36 = getelementptr inbounds nuw %struct.slurm_step_layout, ptr %35, i32 0, i32 5
  %37 = load i32, ptr %36, align 8
  %38 = zext i32 %37 to i64
  %39 = call ptr @slurm_bit_realloc(ptr noundef %34, i64 noundef %38)
  %40 = load ptr, ptr %3, align 8
  %41 = getelementptr inbounds nuw %struct.step_launch_state, ptr %40, i32 0, i32 8
  %42 = load ptr, ptr %4, align 8
  %43 = getelementptr inbounds nuw %struct.slurm_step_layout, ptr %42, i32 0, i32 5
  %44 = load i32, ptr %43, align 8
  %45 = zext i32 %44 to i64
  %46 = mul i64 8, %45
  %47 = call ptr @slurm_xrecalloc(ptr noundef %41, i64 noundef 1, i64 noundef %46, i1 noundef zeroext true, i1 noundef zeroext false, ptr noundef @.str.2, i32 noundef 979, ptr noundef @__func__.step_launch_state_alter)
  %48 = load ptr, ptr %4, align 8
  %49 = load ptr, ptr %3, align 8
  %50 = getelementptr inbounds nuw %struct.step_launch_state, ptr %49, i32 0, i32 21
  %51 = getelementptr inbounds [1 x %struct.mpi_step_info_t], ptr %50, i64 0, i64 0
  %52 = getelementptr inbounds nuw %struct.mpi_step_info_t, ptr %51, i32 0, i32 3
  store ptr %48, ptr %52, align 8
  %53 = load ptr, ptr %3, align 8
  %54 = getelementptr inbounds nuw %struct.step_launch_state, ptr %53, i32 0, i32 20
  store ptr %48, ptr %54, align 8
  store i32 0, ptr %5, align 4
  br label %55

55:                                               ; preds = %68, %1
  %56 = load i32, ptr %5, align 4
  %57 = load ptr, ptr %4, align 8
  %58 = getelementptr inbounds nuw %struct.slurm_step_layout, ptr %57, i32 0, i32 5
  %59 = load i32, ptr %58, align 8
  %60 = icmp ult i32 %56, %59
  br i1 %60, label %61, label %71

61:                                               ; preds = %55
  %62 = load ptr, ptr %3, align 8
  %63 = getelementptr inbounds nuw %struct.step_launch_state, ptr %62, i32 0, i32 8
  %64 = load ptr, ptr %63, align 8
  %65 = load i32, ptr %5, align 4
  %66 = sext i32 %65 to i64
  %67 = getelementptr inbounds i64, ptr %64, i64 %66
  store i64 4294967294, ptr %67, align 8
  br label %68

68:                                               ; preds = %61
  %69 = load i32, ptr %5, align 4
  %70 = add nsw i32 %69, 1
  store i32 %70, ptr %5, align 4
  br label %55, !llvm.loop !21

71:                                               ; preds = %55
  call void @llvm.lifetime.end.p0(i64 4, ptr %5) #10
  call void @llvm.lifetime.end.p0(i64 8, ptr %4) #10
  call void @llvm.lifetime.end.p0(i64 8, ptr %3) #10
  ret void
}