; Function Attrs: nounwind uwtable
define dso_local void @step_launch_state_alter(ptr noundef readonly captures(none) %0) local_unnamed_addr #3 {
  %2 = getelementptr inbounds nuw i8, ptr %0, i64 24
  %3 = load ptr, ptr %2, align 8
  %4 = getelementptr inbounds nuw i8, ptr %0, i64 16
  %5 = load ptr, ptr %4, align 8
  %6 = getelementptr inbounds nuw i8, ptr %5, i64 24
  %7 = load ptr, ptr %6, align 8
  %8 = getelementptr inbounds nuw i8, ptr %7, i64 72
  %9 = load i32, ptr %8, align 8
  %10 = getelementptr inbounds nuw i8, ptr %3, i64 88
  store i32 %9, ptr %10, align 8
  %11 = getelementptr inbounds nuw i8, ptr %3, i64 96
  %12 = zext i32 %9 to i64
  %13 = tail call ptr @slurm_bit_realloc(ptr noundef nonnull %11, i64 noundef %12) #14
  %14 = getelementptr inbounds nuw i8, ptr %3, i64 104
  %15 = load i32, ptr %8, align 8
  %16 = zext i32 %15 to i64
  %17 = tail call ptr @slurm_bit_realloc(ptr noundef nonnull %14, i64 noundef %16) #14
  %18 = getelementptr inbounds nuw i8, ptr %3, i64 112
  %19 = getelementptr inbounds nuw i8, ptr %7, i64 40
  %20 = load i32, ptr %19, align 8
  %21 = zext i32 %20 to i64
  %22 = tail call ptr @slurm_bit_realloc(ptr noundef nonnull %18, i64 noundef %21) #14
  %23 = getelementptr inbounds nuw i8, ptr %3, i64 136
  %24 = load i32, ptr %19, align 8
  %25 = zext i32 %24 to i64
  %26 = shl nuw nsw i64 %25, 3
  %27 = tail call ptr @slurm_xrecalloc(ptr noundef nonnull %23, i64 noundef 1, i64 noundef %26, i1 noundef zeroext true, i1 noundef zeroext false, ptr noundef nonnull @.str.2, i32 noundef 979, ptr noundef nonnull @__func__.step_launch_state_alter) #14
  %28 = getelementptr inbounds nuw i8, ptr %3, i64 240
  store ptr %7, ptr %28, align 8
  %29 = getelementptr inbounds nuw i8, ptr %3, i64 200
  store ptr %7, ptr %29, align 8
  %30 = load i32, ptr %19, align 8
  %.not = icmp eq i32 %30, 0
  br i1 %.not, label %._crit_edge, label %.lr.ph

.lr.ph:                                           ; preds = %1, %.lr.ph
  %indvars.iv = phi i64 [ %indvars.iv.next, %.lr.ph ], [ 0, %1 ]
  %31 = load ptr, ptr %23, align 8
  %32 = getelementptr inbounds nuw i64, ptr %31, i64 %indvars.iv
  store i64 4294967294, ptr %32, align 8
  %indvars.iv.next = add nuw nsw i64 %indvars.iv, 1
  %33 = load i32, ptr %19, align 8
  %34 = zext i32 %33 to i64
  %35 = icmp samesign ult i64 %indvars.iv.next, %34
  br i1 %35, label %.lr.ph, label %._crit_edge, !llvm.loop !23

._crit_edge:                                      ; preds = %.lr.ph, %1
  ret void
}